target datalayout = "e-m:e-p270:32:32-p271:32:32-p272:64:64-i64:64-i128:128-f80:128-n8:16:32:64-S128"
target triple = "x86_64-pc-linux-gnu"

; Function Attrs: mustprogress nounwind uwtable
define ptr @uprv_eastrncpy_77(ptr noundef %0, ptr noundef %1, i32 noundef %2) #0 {
  %4 = alloca ptr, align 8
  %5 = alloca ptr, align 8
  %6 = alloca i32, align 4
  %7 = alloca ptr, align 8
  %8 = alloca i8, align 1
  store ptr %0, ptr %4, align 8, !tbaa !3
  store ptr %1, ptr %5, align 8, !tbaa !3
  store i32 %2, ptr %6, align 4, !tbaa !10
  call void @llvm.lifetime.start.p0(i64 8, ptr %7) #7
  %9 = load ptr, ptr %4, align 8, !tbaa !3
  store ptr %9, ptr %7, align 8, !tbaa !3
  %10 = load i32, ptr %6, align 4, !tbaa !10
  %11 = icmp eq i32 %10, -1
  br i1 %11, label %12, label %17

12:                                               ; preds = %3
  %13 = load ptr, ptr %5, align 8, !tbaa !3
  %14 = call i64 @strlen(ptr noundef %13) #8
  %15 = add i64 %14, 1
  %16 = trunc i64 %15 to i32
  store i32 %16, ptr %6, align 4, !tbaa !10
  br label %17

17:                                               ; preds = %12, %3
  br label %18

18:                                               ; preds = %39, %17
  %19 = load ptr, ptr %5, align 8, !tbaa !3
  %20 = load i8, ptr %19, align 1, !tbaa !12
  %21 = icmp ne i8 %20, 0
  br i1 %21, label %22, label %25

22:                                               ; preds = %18
  %23 = load i32, ptr %6, align 4, !tbaa !10
  %24 = icmp sgt i32 %23, 0
  br label %25

25:                                               ; preds = %22, %18
  %26 = phi i1 [ false, %18 ], [ %24, %22 ]
  br i1 %26, label %27, label %45

27:                                               ; preds = %25
  call void @llvm.lifetime.start.p0(i64 1, ptr %8) #7
  %28 = load ptr, ptr %5, align 8, !tbaa !3
  %29 = getelementptr inbounds nuw i8, ptr %28, i32 1
  store ptr %29, ptr %5, align 8, !tbaa !3
  %30 = load i8, ptr %28, align 1, !tbaa !12
  %31 = zext i8 %30 to i64
  %32 = getelementptr inbounds nuw [256 x i8], ptr @_ZL15ebcdicFromAscii, i64 0, i64 %31
  %33 = load i8, ptr %32, align 1, !tbaa !12
  store i8 %33, ptr %8, align 1, !tbaa !12
  %34 = load i8, ptr %8, align 1, !tbaa !12
  %35 = sext i8 %34 to i32
  %36 = icmp eq i32 %35, 0
  br i1 %36, label %37, label %39

37:                                               ; preds = %27
  %38 = load i8, ptr getelementptr inbounds ([256 x i8], ptr @_ZL15ebcdicFromAscii, i64 0, i64 63), align 1, !tbaa !12
  store i8 %38, ptr %8, align 1, !tbaa !12
  br label %39

39:                                               ; preds = %37, %27
  %40 = load i8, ptr %8, align 1, !tbaa !12
  %41 = load ptr, ptr %4, align 8, !tbaa !3
  %42 = getelementptr inbounds nuw i8, ptr %41, i32 1
  store ptr %42, ptr %4, align 8, !tbaa !3
  store i8 %40, ptr %41, align 1, !tbaa !12
  %43 = load i32, ptr %6, align 4, !tbaa !10
  %44 = add nsw i32 %43, -1
  store i32 %44, ptr %6, align 4, !tbaa !10
  call void @llvm.lifetime.end.p0(i64 1, ptr %8) #7
  br label %18, !llvm.loop !34

45:                                               ; preds = %25
  br label %46

46:                                               ; preds = %49, %45
  %47 = load i32, ptr %6, align 4, !tbaa !10
  %48 = icmp sgt i32 %47, 0
  br i1 %48, label %49, label %54

49:                                               ; preds = %46
  %50 = load ptr, ptr %4, align 8, !tbaa !3
  %51 = getelementptr inbounds nuw i8, ptr %50, i32 1
  store ptr %51, ptr %4, align 8, !tbaa !3
  store i8 0, ptr %50, align 1, !tbaa !12
  %52 = load i32, ptr %6, align 4, !tbaa !10
  %53 = add nsw i32 %52, -1
  store i32 %53, ptr %6, align 4, !tbaa !10
  br label %46, !llvm.loop !35

54:                                               ; preds = %46
  %55 = load ptr, ptr %7, align 8, !tbaa !3
  call void @llvm.lifetime.end.p0(i64 8, ptr %7) #7
  ret ptr %55
}