; Function Attrs: mustprogress nofree nounwind memory(argmem: readwrite) uwtable
define noundef ptr @uprv_eastrncpy_77(ptr noundef returned writeonly %0, ptr noundef readonly captures(none) %1, i32 noundef %2) local_unnamed_addr #8 {
  %4 = icmp eq i32 %2, -1
  br i1 %4, label %5, label %9

5:                                                ; preds = %3
  %6 = tail call i64 @strlen(ptr noundef nonnull dereferenceable(1) %1) #12
  %7 = trunc i64 %6 to i32
  %8 = add i32 %7, 1
  br label %9

9:                                                ; preds = %5, %3
  %.014 = phi i32 [ %8, %5 ], [ %2, %3 ]
  %10 = load i8, ptr %1, align 1, !tbaa !3
  %11 = icmp ne i8 %10, 0
  %12 = icmp sgt i32 %.014, 0
  %13 = select i1 %11, i1 %12, i1 false
  br i1 %13, label %.lr.ph, label %.preheader

.preheader:                                       ; preds = %.lr.ph, %9
  %.115.lcssa = phi i32 [ %.014, %9 ], [ %23, %.lr.ph ]
  %.013.lcssa = phi ptr [ %0, %9 ], [ %22, %.lr.ph ]
  %14 = icmp sgt i32 %.115.lcssa, 0
  br i1 %14, label %.lr.ph25.preheader, label %._crit_edge

.lr.ph25.preheader:                               ; preds = %.preheader
  %15 = zext nneg i32 %.115.lcssa to i64
  tail call void @llvm.memset.p0.i64(ptr align 1 %.013.lcssa, i8 0, i64 %15, i1 false), !tbaa !3
  br label %._crit_edge

.lr.ph:                                           ; preds = %9, %.lr.ph
  %16 = phi i8 [ %24, %.lr.ph ], [ %10, %9 ]
  %.01321 = phi ptr [ %22, %.lr.ph ], [ %0, %9 ]
  %.11520 = phi i32 [ %23, %.lr.ph ], [ %.014, %9 ]
  %.01619 = phi ptr [ %17, %.lr.ph ], [ %1, %9 ]
  %17 = getelementptr inbounds nuw i8, ptr %.01619, i64 1
  %18 = zext i8 %16 to i64
  %19 = getelementptr inbounds nuw [256 x i8], ptr @_ZL15ebcdicFromAscii, i64 0, i64 %18
  %20 = load i8, ptr %19, align 1, !tbaa !3
  %21 = icmp eq i8 %20, 0
  %spec.select = select i1 %21, i8 111, i8 %20
  %22 = getelementptr inbounds nuw i8, ptr %.01321, i64 1
  store i8 %spec.select, ptr %.01321, align 1, !tbaa !3
  %23 = add nsw i32 %.11520, -1
  %24 = load i8, ptr %17, align 1, !tbaa !3
  %25 = icmp ne i8 %24, 0
  %26 = icmp samesign ugt i32 %.11520, 1
  %27 = select i1 %25, i1 %26, i1 false
  br i1 %27, label %.lr.ph, label %.preheader, !llvm.loop !25

._crit_edge:                                      ; preds = %.lr.ph25.preheader, %.preheader
  ret ptr %0
}